; Function Attrs: mustprogress nofree norecurse nosync nounwind willreturn memory(argmem: readwrite) uwtable
define hidden void @_ZN6ciTypeC2EP5Klass(ptr nocapture noundef nonnull writeonly align 8 dereferenceable(25) %0, ptr noundef %1) unnamed_addr #1 align 2 {
  %3 = getelementptr inbounds i8, ptr %0, i64 8
  store i32 0, ptr %3, align 8
  %4 = getelementptr inbounds i8, ptr %0, i64 16
  store ptr %1, ptr %4, align 8
  store ptr getelementptr inbounds inrange(-16, 144) (i8, ptr @_ZTV6ciType, i64 16), ptr %0, align 8
  %5 = getelementptr inbounds i8, ptr %1, i64 12
  %6 = load i32, ptr %5, align 4
  %7 = icmp sgt i32 %6, 4
  %8 = select i1 %7, i8 13, i8 12
  %9 = getelementptr inbounds i8, ptr %0, i64 24
  store i8 %8, ptr %9, align 8
  ret void
}